target datalayout = "e-m:e-p270:32:32-p271:32:32-p272:64:64-i64:64-i128:128-f80:128-n8:16:32:64-S128"
target triple = "x86_64-pc-linux-gnu"

%struct.VduseVirtq = type { %struct.VduseRing, i16, i16, i16, i16, i8, i32, i32, i8, i32, ptr, ptr, i16, i64, ptr }
%struct.VduseRing = type { i32, i64, i64, i64, ptr, ptr, ptr }
%struct.VduseDev = type { ptr, [256 x %struct.VduseIovaRegion], i32, ptr, i32, i32, i16, i16, i64, ptr, i32, i32, ptr, ptr }
%struct.VduseIovaRegion = type { i64, i64, i64, i64 }

@stderr = external global ptr, align 8
@.str.8 = private unnamed_addr constant [28 x i8] c"Failed to get features: %s\0A\00", align 1
@.str.39 = private unnamed_addr constant [14 x i8] c"/dev/vduse/%s\00", align 1
@.str.40 = private unnamed_addr constant [33 x i8] c"Failed to open vduse dev %s: %s\0A\00", align 1

; Function Attrs: nounwind uwtable
define internal i32 @vduse_dev_init_vqs(ptr noundef %0, i16 noundef zeroext %1) #0 {
  %3 = alloca i32, align 4
  %4 = alloca ptr, align 8
  %5 = alloca i16, align 2
  %6 = alloca ptr, align 8
  %7 = alloca i32, align 4
  %8 = alloca i32, align 4
  store ptr %0, ptr %4, align 8
  store i16 %1, ptr %5, align 2
  call void @llvm.lifetime.start.p0(i64 8, ptr %6) #13
  store ptr null, ptr %6, align 8, !annotation !4
  call void @llvm.lifetime.start.p0(i64 4, ptr %7) #13
  store i32 0, ptr %7, align 4, !annotation !4
  %9 = load i16, ptr %5, align 2
  %10 = zext i16 %9 to i64
  %11 = call noalias ptr @calloc(i64 noundef 128, i64 noundef %10) #17
  store ptr %11, ptr %6, align 8
  %12 = load ptr, ptr %6, align 8
  %13 = icmp ne ptr %12, null
  br i1 %13, label %15, label %14

14:                                               ; preds = %2
  store i32 -12, ptr %3, align 4
  store i32 1, ptr %8, align 4
  br label %46

15:                                               ; preds = %2
  store i32 0, ptr %7, align 4
  br label %16

16:                                               ; preds = %39, %15
  %17 = load i32, ptr %7, align 4
  %18 = load i16, ptr %5, align 2
  %19 = zext i16 %18 to i32
  %20 = icmp slt i32 %17, %19
  br i1 %20, label %21, label %42

21:                                               ; preds = %16
  %22 = load i32, ptr %7, align 4
  %23 = load ptr, ptr %6, align 8
  %24 = load i32, ptr %7, align 4
  %25 = sext i32 %24 to i64
  %26 = getelementptr inbounds %struct.VduseVirtq, ptr %23, i64 %25
  %27 = getelementptr inbounds nuw %struct.VduseVirtq, ptr %26, i32 0, i32 6
  store i32 %22, ptr %27, align 4
  %28 = load ptr, ptr %4, align 8
  %29 = load ptr, ptr %6, align 8
  %30 = load i32, ptr %7, align 4
  %31 = sext i32 %30 to i64
  %32 = getelementptr inbounds %struct.VduseVirtq, ptr %29, i64 %31
  %33 = getelementptr inbounds nuw %struct.VduseVirtq, ptr %32, i32 0, i32 10
  store ptr %28, ptr %33, align 8
  %34 = load ptr, ptr %6, align 8
  %35 = load i32, ptr %7, align 4
  %36 = sext i32 %35 to i64
  %37 = getelementptr inbounds %struct.VduseVirtq, ptr %34, i64 %36
  %38 = getelementptr inbounds nuw %struct.VduseVirtq, ptr %37, i32 0, i32 9
  store i32 -1, ptr %38, align 8
  br label %39

39:                                               ; preds = %21
  %40 = load i32, ptr %7, align 4
  %41 = add i32 %40, 1
  store i32 %41, ptr %7, align 4
  br label %16

42:                                               ; preds = %16
  %43 = load ptr, ptr %6, align 8
  %44 = load ptr, ptr %4, align 8
  %45 = getelementptr inbounds nuw %struct.VduseDev, ptr %44, i32 0, i32 0
  store ptr %43, ptr %45, align 8
  store i32 0, ptr %3, align 4
  store i32 1, ptr %8, align 4
  br label %46

46:                                               ; preds = %42, %14
  call void @llvm.lifetime.end.p0(i64 4, ptr %7) #13
  call void @llvm.lifetime.end.p0(i64 8, ptr %6) #13
  %47 = load i32, ptr %3, align 4
  ret i32 %47
}

; Function Attrs: nounwind uwtable
define internal i32 @vduse_dev_init(ptr noundef %0, ptr noundef %1, i16 noundef zeroext %2, ptr noundef %3, ptr noundef %4) #0 {
  %6 = alloca i32, align 4
  %7 = alloca ptr, align 8
  %8 = alloca ptr, align 8
  %9 = alloca i16, align 2
  %10 = alloca ptr, align 8
  %11 = alloca ptr, align 8
  %12 = alloca ptr, align 8
  %13 = alloca ptr, align 8
  %14 = alloca i32, align 4
  %15 = alloca i32, align 4
  %16 = alloca i32, align 4
  store ptr %0, ptr %7, align 8
  store ptr %1, ptr %8, align 8
  store i16 %2, ptr %9, align 2
  store ptr %3, ptr %10, align 8
  store ptr %4, ptr %11, align 8
  call void @llvm.lifetime.start.p0(i64 8, ptr %12) #13
  store ptr null, ptr %12, align 8, !annotation !4
  call void @llvm.lifetime.start.p0(i64 8, ptr %13) #13
  store ptr null, ptr %13, align 8, !annotation !4
  call void @llvm.lifetime.start.p0(i64 4, ptr %14) #13
  store i32 0, ptr %14, align 4, !annotation !4
  call void @llvm.lifetime.start.p0(i64 4, ptr %15) #13
  store i32 0, ptr %15, align 4, !annotation !4
  %17 = load ptr, ptr %8, align 8
  %18 = call i64 @strlen(ptr noundef %17) #18
  %19 = add i64 %18, 11
  %20 = add i64 %19, 1
  %21 = call noalias ptr @malloc(i64 noundef %20) #16
  store ptr %21, ptr %12, align 8
  %22 = load ptr, ptr %12, align 8
  %23 = icmp ne ptr %22, null
  br i1 %23, label %25, label %24

24:                                               ; preds = %5
  store i32 -12, ptr %6, align 4
  store i32 1, ptr %16, align 4
  br label %96

25:                                               ; preds = %5
  %26 = load ptr, ptr %12, align 8
  %27 = load ptr, ptr %8, align 8
  %28 = call i32 (ptr, ptr, ...) @sprintf(ptr noundef %26, ptr noundef @.str.39, ptr noundef %27) #13
  %29 = load ptr, ptr %12, align 8
  %30 = call i32 (ptr, i32, ...) @open64(ptr noundef %29, i32 noundef 2)
  store i32 %30, ptr %15, align 4
  %31 = load ptr, ptr %12, align 8
  call void @free(ptr noundef %31) #13
  %32 = load i32, ptr %15, align 4
  %33 = icmp slt i32 %32, 0
  br i1 %33, label %34, label %44

34:                                               ; preds = %25
  %35 = load ptr, ptr @stderr, align 8
  %36 = load ptr, ptr %8, align 8
  %37 = call ptr @__errno_location() #14
  %38 = load i32, ptr %37, align 4
  %39 = call ptr @strerror(i32 noundef %38) #13
  %40 = call i32 (ptr, ptr, ...) @fprintf(ptr noundef %35, ptr noundef @.str.40, ptr noundef %36, ptr noundef %39) #13
  %41 = call ptr @__errno_location() #14
  %42 = load i32, ptr %41, align 4
  %43 = sub i32 0, %42
  store i32 %43, ptr %6, align 4
  store i32 1, ptr %16, align 4
  br label %96

44:                                               ; preds = %25
  %45 = load i32, ptr %15, align 4
  %46 = load ptr, ptr %7, align 8
  %47 = getelementptr inbounds nuw %struct.VduseDev, ptr %46, i32 0, i32 8
  %48 = call i32 (i32, i64, ...) @ioctl(i32 noundef %45, i64 noundef 2148040977, ptr noundef %47) #13
  %49 = icmp ne i32 %48, 0
  br i1 %49, label %50, label %61

50:                                               ; preds = %44
  %51 = load ptr, ptr @stderr, align 8
  %52 = call ptr @__errno_location() #14
  %53 = load i32, ptr %52, align 4
  %54 = call ptr @strerror(i32 noundef %53) #13
  %55 = call i32 (ptr, ptr, ...) @fprintf(ptr noundef %51, ptr noundef @.str.8, ptr noundef %54) #13
  %56 = load i32, ptr %15, align 4
  %57 = call i32 @close(i32 noundef %56)
  %58 = call ptr @__errno_location() #14
  %59 = load i32, ptr %58, align 4
  %60 = sub i32 0, %59
  store i32 %60, ptr %6, align 4
  store i32 1, ptr %16, align 4
  br label %96

61:                                               ; preds = %44
  %62 = load ptr, ptr %8, align 8
  %63 = call noalias ptr @strdup(ptr noundef %62) #13
  store ptr %63, ptr %13, align 8
  %64 = load ptr, ptr %13, align 8
  %65 = icmp ne ptr %64, null
  br i1 %65, label %69, label %66

66:                                               ; preds = %61
  %67 = load i32, ptr %15, align 4
  %68 = call i32 @close(i32 noundef %67)
  store i32 -12, ptr %6, align 4
  store i32 1, ptr %16, align 4
  br label %96

69:                                               ; preds = %61
  %70 = load ptr, ptr %7, align 8
  %71 = load i16, ptr %9, align 2
  %72 = call i32 @vduse_dev_init_vqs(ptr noundef %70, i16 noundef zeroext %71)
  store i32 %72, ptr %14, align 4
  %73 = load i32, ptr %14, align 4
  %74 = icmp ne i32 %73, 0
  br i1 %74, label %75, label %80

75:                                               ; preds = %69
  %76 = load ptr, ptr %13, align 8
  call void @free(ptr noundef %76) #13
  %77 = load i32, ptr %15, align 4
  %78 = call i32 @close(i32 noundef %77)
  %79 = load i32, ptr %14, align 4
  store i32 %79, ptr %6, align 4
  store i32 1, ptr %16, align 4
  br label %96

80:                                               ; preds = %69
  %81 = load ptr, ptr %13, align 8
  %82 = load ptr, ptr %7, align 8
  %83 = getelementptr inbounds nuw %struct.VduseDev, ptr %82, i32 0, i32 3
  store ptr %81, ptr %83, align 8
  %84 = load i16, ptr %9, align 2
  %85 = load ptr, ptr %7, align 8
  %86 = getelementptr inbounds nuw %struct.VduseDev, ptr %85, i32 0, i32 6
  store i16 %84, ptr %86, align 8
  %87 = load i32, ptr %15, align 4
  %88 = load ptr, ptr %7, align 8
  %89 = getelementptr inbounds nuw %struct.VduseDev, ptr %88, i32 0, i32 10
  store i32 %87, ptr %89, align 8
  %90 = load ptr, ptr %10, align 8
  %91 = load ptr, ptr %7, align 8
  %92 = getelementptr inbounds nuw %struct.VduseDev, ptr %91, i32 0, i32 9
  store ptr %90, ptr %92, align 8
  %93 = load ptr, ptr %11, align 8
  %94 = load ptr, ptr %7, align 8
  %95 = getelementptr inbounds nuw %struct.VduseDev, ptr %94, i32 0, i32 12
  store ptr %93, ptr %95, align 8
  store i32 0, ptr %6, align 4
  store i32 1, ptr %16, align 4
  br label %96

96:                                               ; preds = %80, %75, %66, %50, %34, %24
  call void @llvm.lifetime.end.p0(i64 4, ptr %15) #13
  call void @llvm.lifetime.end.p0(i64 4, ptr %14) #13
  call void @llvm.lifetime.end.p0(i64 8, ptr %13) #13
  call void @llvm.lifetime.end.p0(i64 8, ptr %12) #13
  %97 = load i32, ptr %6, align 4
  ret i32 %97
}