; Function Attrs: nounwind uwtable
define internal fastcc i32 @vduse_dev_init(ptr noundef nonnull %0, ptr noundef nonnull %1, i16 noundef zeroext %2, ptr noundef nonnull %3, ptr noundef %4) unnamed_addr #2 {
  %6 = tail call i64 @strlen(ptr noundef nonnull dereferenceable(1) %1) #27
  %7 = add i64 %6, 12
  %8 = tail call noalias ptr @malloc(i64 noundef %7) #25
  %.not = icmp eq ptr %8, null
  br i1 %.not, label %51, label %9

9:                                                ; preds = %5
  %10 = tail call i32 (ptr, ptr, ...) @sprintf(ptr noundef nonnull dereferenceable(1) %8, ptr noundef nonnull dereferenceable(1) @.str.39, ptr noundef nonnull %1) #20
  %11 = tail call i32 (ptr, i32, ...) @open64(ptr noundef nonnull %8, i32 noundef 2) #20
  tail call void @free(ptr noundef nonnull %8) #20
  %12 = icmp slt i32 %11, 0
  br i1 %12, label %13, label %21

13:                                               ; preds = %9
  %14 = load ptr, ptr @stderr, align 8
  %15 = tail call ptr @__errno_location() #21
  %16 = load i32, ptr %15, align 4
  %17 = tail call ptr @strerror(i32 noundef %16) #20
  %18 = tail call i32 (ptr, ptr, ...) @fprintf(ptr noundef %14, ptr noundef nonnull @.str.40, ptr noundef nonnull %1, ptr noundef %17) #22
  %19 = load i32, ptr %15, align 4
  %20 = sub i32 0, %19
  br label %51

21:                                               ; preds = %9
  %22 = getelementptr inbounds nuw i8, ptr %0, i64 8232
  %23 = tail call i32 (i32, i64, ...) @ioctl(i32 noundef %11, i64 noundef 2148040977, ptr noundef nonnull %22) #20
  %.not34 = icmp eq i32 %23, 0
  br i1 %.not34, label %33, label %24

24:                                               ; preds = %21
  %25 = load ptr, ptr @stderr, align 8
  %26 = tail call ptr @__errno_location() #21
  %27 = load i32, ptr %26, align 4
  %28 = tail call ptr @strerror(i32 noundef %27) #20
  %29 = tail call i32 (ptr, ptr, ...) @fprintf(ptr noundef %25, ptr noundef nonnull @.str.8, ptr noundef %28) #22
  %30 = tail call i32 @close(i32 noundef %11) #20
  %31 = load i32, ptr %26, align 4
  %32 = sub i32 0, %31
  br label %51

33:                                               ; preds = %21
  %34 = tail call noalias ptr @strdup(ptr noundef nonnull %1) #20
  %.not35 = icmp eq ptr %34, null
  br i1 %.not35, label %35, label %37

35:                                               ; preds = %33
  %36 = tail call i32 @close(i32 noundef %11) #20
  br label %51

37:                                               ; preds = %33
  %38 = zext i16 %2 to i64
  %39 = tail call noalias ptr @calloc(i64 noundef 128, i64 noundef %38) #26
  %.not.i = icmp eq ptr %39, null
  br i1 %.not.i, label %vduse_dev_init_vqs.exit, label %.preheader.i

.preheader.i:                                     ; preds = %37
  %.not18.i = icmp eq i16 %2, 0
  br i1 %.not18.i, label %.loopexit, label %.lr.ph.i

.lr.ph.i:                                         ; preds = %.preheader.i, %.lr.ph.i
  %indvars.iv.i = phi i64 [ %indvars.iv.next.i, %.lr.ph.i ], [ 0, %.preheader.i ]
  %40 = getelementptr inbounds nuw %struct.VduseVirtq, ptr %39, i64 %indvars.iv.i
  %41 = getelementptr inbounds nuw i8, ptr %40, i64 68
  %42 = trunc nuw nsw i64 %indvars.iv.i to i32
  store i32 %42, ptr %41, align 4
  %43 = getelementptr inbounds nuw i8, ptr %40, i64 88
  store ptr %0, ptr %43, align 8
  %44 = getelementptr inbounds nuw i8, ptr %40, i64 80
  store i32 -1, ptr %44, align 8
  %indvars.iv.next.i = add nuw nsw i64 %indvars.iv.i, 1
  %exitcond.not.i = icmp eq i64 %indvars.iv.next.i, %38
  br i1 %exitcond.not.i, label %.loopexit, label %.lr.ph.i

vduse_dev_init_vqs.exit:                          ; preds = %37
  tail call void @free(ptr noundef nonnull %34) #20
  %45 = tail call i32 @close(i32 noundef %11) #20
  br label %51

.loopexit:                                        ; preds = %.lr.ph.i, %.preheader.i
  store ptr %39, ptr %0, align 8
  %46 = getelementptr inbounds nuw i8, ptr %0, i64 8208
  store ptr %34, ptr %46, align 8
  %47 = getelementptr inbounds nuw i8, ptr %0, i64 8224
  store i16 %2, ptr %47, align 8
  %48 = getelementptr inbounds nuw i8, ptr %0, i64 8248
  store i32 %11, ptr %48, align 8
  %49 = getelementptr inbounds nuw i8, ptr %0, i64 8240
  store ptr %3, ptr %49, align 8
  %50 = getelementptr inbounds nuw i8, ptr %0, i64 8256
  store ptr %4, ptr %50, align 8
  br label %51

51:                                               ; preds = %5, %.loopexit, %vduse_dev_init_vqs.exit, %35, %24, %13
  %.0 = phi i32 [ %20, %13 ], [ %32, %24 ], [ -12, %vduse_dev_init_vqs.exit ], [ 0, %.loopexit ], [ -12, %35 ], [ -12, %5 ]
  ret i32 %.0
}